; Function Attrs: mustprogress uwtable
define hidden { <2 x float>, <2 x float> } @_ZN6Assimp11XFileParser8ReadRGBAEv(ptr noundef nonnull align 8 dereferenceable(56) %this) local_unnamed_addr #0 align 2 {
entry:
  %call = tail call noundef float @_ZN6Assimp11XFileParser9ReadFloatEv(ptr noundef nonnull align 8 dereferenceable(56) %this)
  %retval.sroa.0.0.vec.insert = insertelement <2 x float> poison, float %call, i64 0
  %call2 = tail call noundef float @_ZN6Assimp11XFileParser9ReadFloatEv(ptr noundef nonnull align 8 dereferenceable(56) %this)
  %retval.sroa.0.4.vec.insert = insertelement <2 x float> %retval.sroa.0.0.vec.insert, float %call2, i64 1
  %call3 = tail call noundef float @_ZN6Assimp11XFileParser9ReadFloatEv(ptr noundef nonnull align 8 dereferenceable(56) %this)
  %retval.sroa.4.8.vec.insert = insertelement <2 x float> poison, float %call3, i64 0
  %call4 = tail call noundef float @_ZN6Assimp11XFileParser9ReadFloatEv(ptr noundef nonnull align 8 dereferenceable(56) %this)
  %retval.sroa.4.12.vec.insert = insertelement <2 x float> %retval.sroa.4.8.vec.insert, float %call4, i64 1
  tail call void @_ZN6Assimp11XFileParser16TestForSeparatorEv(ptr noundef nonnull align 8 dereferenceable(56) %this)
  %.fca.0.insert = insertvalue { <2 x float>, <2 x float> } poison, <2 x float> %retval.sroa.0.4.vec.insert, 0
  %.fca.1.insert = insertvalue { <2 x float>, <2 x float> } %.fca.0.insert, <2 x float> %retval.sroa.4.12.vec.insert, 1
  ret { <2 x float>, <2 x float> } %.fca.1.insert
}